target datalayout = "e-m:e-p270:32:32-p271:32:32-p272:64:64-i64:64-i128:128-f80:128-n8:16:32:64-S128"
target triple = "x86_64-unknown-linux-gnu"

%"class.std::__cxx11::basic_string" = type { %"struct.std::__cxx11::basic_string<char>::_Alloc_hider", i64, %union.anon }
%"struct.std::__cxx11::basic_string<char>::_Alloc_hider" = type { ptr }
%union.anon = type { i64, [8 x i8] }
%"class.Assimp::MD3Importer" = type { %"class.Assimp::BaseImporter", i32, i8, %"class.std::__cxx11::basic_string", i8, %"class.std::__cxx11::basic_string", i8, ptr, ptr, i32, %"class.std::__cxx11::basic_string", %"class.std::__cxx11::basic_string", %"class.std::__cxx11::basic_string", ptr, ptr }
%"class.Assimp::BaseImporter" = type { ptr, double, double, %"class.std::__cxx11::basic_string", %"class.std::__exception_ptr::exception_ptr", ptr }
%"class.std::__exception_ptr::exception_ptr" = type { ptr }
%"struct.Assimp::MD3::Surface" = type { i32, [64 x i8], i32, i32, i32, i32, i32, i32, i32, i32, i32, i32 }

@_ZTI17DeadlyImportError = linkonce_odr constant { ptr, ptr, ptr } { ptr getelementptr inbounds (ptr, ptr @_ZTVN10__cxxabiv120__si_class_type_infoE, i64 2), ptr @_ZTS17DeadlyImportError, ptr @_ZTI15DeadlyErrorBase }, comdat, align 8
@.str.43 = private unnamed_addr constant [62 x i8] c"Invalid MD3 surface header: some offsets are outside the file\00", align 1
@.str.44 = private unnamed_addr constant [39 x i8] c"MD3: Quake III triangle limit exceeded\00", align 1
@.str.45 = private unnamed_addr constant [37 x i8] c"MD3: Quake III shader limit exceeded\00", align 1
@.str.46 = private unnamed_addr constant [37 x i8] c"MD3: Quake III vertex limit exceeded\00", align 1
@.str.47 = private unnamed_addr constant [36 x i8] c"MD3: Quake III frame limit exceeded\00", align 1

; Function Attrs: mustprogress uwtable
define hidden void @_ZN6Assimp11MD3Importer28ValidateSurfaceHeaderOffsetsEPKNS_3MD37SurfaceE(ptr noundef nonnull align 8 dereferenceable(296) %this, ptr noundef %pcSurf) #2 align 2 personality ptr @__gxx_personality_v0 {
entry:
  %this.addr = alloca ptr, align 8
  %pcSurf.addr = alloca ptr, align 8
  %ofs = alloca i32, align 4
  %exn.slot = alloca ptr, align 8
  %ehselector.slot = alloca i32, align 4
  store ptr %this, ptr %this.addr, align 8
  store ptr %pcSurf, ptr %pcSurf.addr, align 8
  %this1 = load ptr, ptr %this.addr, align 8
  %0 = load ptr, ptr %pcSurf.addr, align 8
  %mBuffer = getelementptr inbounds %"class.Assimp::MD3Importer", ptr %this1, i32 0, i32 8
  %1 = load ptr, ptr %mBuffer, align 8
  %sub.ptr.lhs.cast = ptrtoint ptr %0 to i64
  %sub.ptr.rhs.cast = ptrtoint ptr %1 to i64
  %sub.ptr.sub = sub i64 %sub.ptr.lhs.cast, %sub.ptr.rhs.cast
  %conv = trunc i64 %sub.ptr.sub to i32
  store i32 %conv, ptr %ofs, align 4
  %2 = load ptr, ptr %pcSurf.addr, align 8
  %OFS_TRIANGLES = getelementptr inbounds %"struct.Assimp::MD3::Surface", ptr %2, i32 0, i32 7
  %3 = load i32, ptr %OFS_TRIANGLES, align 4
  %4 = load i32, ptr %ofs, align 4
  %add = add i32 %3, %4
  %conv2 = zext i32 %add to i64
  %5 = load ptr, ptr %pcSurf.addr, align 8
  %NUM_TRIANGLES = getelementptr inbounds %"struct.Assimp::MD3::Surface", ptr %5, i32 0, i32 6
  %6 = load i32, ptr %NUM_TRIANGLES, align 4
  %conv3 = zext i32 %6 to i64
  %mul = mul i64 %conv3, 12
  %add4 = add i64 %conv2, %mul
  %fileSize = getelementptr inbounds %"class.Assimp::MD3Importer", ptr %this1, i32 0, i32 9
  %7 = load i32, ptr %fileSize, align 8
  %conv5 = zext i32 %7 to i64
  %cmp = icmp ugt i64 %add4, %conv5
  br i1 %cmp, label %if.then, label %lor.lhs.false

lor.lhs.false:                                    ; preds = %entry
  %8 = load ptr, ptr %pcSurf.addr, align 8
  %OFS_SHADERS = getelementptr inbounds %"struct.Assimp::MD3::Surface", ptr %8, i32 0, i32 8
  %9 = load i32, ptr %OFS_SHADERS, align 4
  %10 = load i32, ptr %ofs, align 4
  %add6 = add i32 %9, %10
  %conv7 = zext i32 %add6 to i64
  %11 = load ptr, ptr %pcSurf.addr, align 8
  %NUM_SHADER = getelementptr inbounds %"struct.Assimp::MD3::Surface", ptr %11, i32 0, i32 4
  %12 = load i32, ptr %NUM_SHADER, align 4
  %conv8 = zext i32 %12 to i64
  %mul9 = mul i64 %conv8, 68
  %add10 = add i64 %conv7, %mul9
  %fileSize11 = getelementptr inbounds %"class.Assimp::MD3Importer", ptr %this1, i32 0, i32 9
  %13 = load i32, ptr %fileSize11, align 8
  %conv12 = zext i32 %13 to i64
  %cmp13 = icmp ugt i64 %add10, %conv12
  br i1 %cmp13, label %if.then, label %lor.lhs.false14

lor.lhs.false14:                                  ; preds = %lor.lhs.false
  %14 = load ptr, ptr %pcSurf.addr, align 8
  %OFS_ST = getelementptr inbounds %"struct.Assimp::MD3::Surface", ptr %14, i32 0, i32 9
  %15 = load i32, ptr %OFS_ST, align 4
  %16 = load i32, ptr %ofs, align 4
  %add15 = add i32 %15, %16
  %conv16 = zext i32 %add15 to i64
  %17 = load ptr, ptr %pcSurf.addr, align 8
  %NUM_VERTICES = getelementptr inbounds %"struct.Assimp::MD3::Surface", ptr %17, i32 0, i32 5
  %18 = load i32, ptr %NUM_VERTICES, align 4
  %conv17 = zext i32 %18 to i64
  %mul18 = mul i64 %conv17, 8
  %add19 = add i64 %conv16, %mul18
  %fileSize20 = getelementptr inbounds %"class.Assimp::MD3Importer", ptr %this1, i32 0, i32 9
  %19 = load i32, ptr %fileSize20, align 8
  %conv21 = zext i32 %19 to i64
  %cmp22 = icmp ugt i64 %add19, %conv21
  br i1 %cmp22, label %if.then, label %lor.lhs.false23

lor.lhs.false23:                                  ; preds = %lor.lhs.false14
  %20 = load ptr, ptr %pcSurf.addr, align 8
  %OFS_XYZNORMAL = getelementptr inbounds %"struct.Assimp::MD3::Surface", ptr %20, i32 0, i32 10
  %21 = load i32, ptr %OFS_XYZNORMAL, align 4
  %22 = load i32, ptr %ofs, align 4
  %add24 = add i32 %21, %22
  %conv25 = zext i32 %add24 to i64
  %23 = load ptr, ptr %pcSurf.addr, align 8
  %NUM_VERTICES26 = getelementptr inbounds %"struct.Assimp::MD3::Surface", ptr %23, i32 0, i32 5
  %24 = load i32, ptr %NUM_VERTICES26, align 4
  %conv27 = zext i32 %24 to i64
  %mul28 = mul i64 %conv27, 8
  %add29 = add i64 %conv25, %mul28
  %fileSize30 = getelementptr inbounds %"class.Assimp::MD3Importer", ptr %this1, i32 0, i32 9
  %25 = load i32, ptr %fileSize30, align 8
  %conv31 = zext i32 %25 to i64
  %cmp32 = icmp ugt i64 %add29, %conv31
  br i1 %cmp32, label %if.then, label %if.end

if.then:                                          ; preds = %lor.lhs.false23, %lor.lhs.false14, %lor.lhs.false, %entry
  %exception = call ptr @__cxa_allocate_exception(i64 16) #14
  invoke void @_ZN17DeadlyImportErrorC2EPKc(ptr noundef nonnull align 8 dereferenceable(16) %exception, ptr noundef @.str.43)
          to label %invoke.cont unwind label %lpad

invoke.cont:                                      ; preds = %if.then
  call void @__cxa_throw(ptr %exception, ptr @_ZTI17DeadlyImportError, ptr @_ZN17DeadlyImportErrorD2Ev) #15
  unreachable

lpad:                                             ; preds = %if.then
  %26 = landingpad { ptr, i32 }
          cleanup
  %27 = extractvalue { ptr, i32 } %26, 0
  store ptr %27, ptr %exn.slot, align 8
  %28 = extractvalue { ptr, i32 } %26, 1
  store i32 %28, ptr %ehselector.slot, align 4
  call void @__cxa_free_exception(ptr %exception) #14
  br label %eh.resume

if.end:                                           ; preds = %lor.lhs.false23
  %29 = load ptr, ptr %pcSurf.addr, align 8
  %NUM_TRIANGLES33 = getelementptr inbounds %"struct.Assimp::MD3::Surface", ptr %29, i32 0, i32 6
  %30 = load i32, ptr %NUM_TRIANGLES33, align 4
  %cmp34 = icmp ugt i32 %30, 8192
  br i1 %cmp34, label %if.then35, label %if.end36

if.then35:                                        ; preds = %if.end
  %call = call noundef ptr @_ZN6Assimp13DefaultLogger3getEv()
  call void @_ZN6Assimp6Logger4warnEPKc(ptr noundef nonnull align 8 dereferenceable(12) %call, ptr noundef @.str.44)
  br label %if.end36

if.end36:                                         ; preds = %if.then35, %if.end
  %31 = load ptr, ptr %pcSurf.addr, align 8
  %NUM_SHADER37 = getelementptr inbounds %"struct.Assimp::MD3::Surface", ptr %31, i32 0, i32 4
  %32 = load i32, ptr %NUM_SHADER37, align 4
  %cmp38 = icmp ugt i32 %32, 256
  br i1 %cmp38, label %if.then39, label %if.end41

if.then39:                                        ; preds = %if.end36
  %call40 = call noundef ptr @_ZN6Assimp13DefaultLogger3getEv()
  call void @_ZN6Assimp6Logger4warnEPKc(ptr noundef nonnull align 8 dereferenceable(12) %call40, ptr noundef @.str.45)
  br label %if.end41

if.end41:                                         ; preds = %if.then39, %if.end36
  %33 = load ptr, ptr %pcSurf.addr, align 8
  %NUM_VERTICES42 = getelementptr inbounds %"struct.Assimp::MD3::Surface", ptr %33, i32 0, i32 5
  %34 = load i32, ptr %NUM_VERTICES42, align 4
  %cmp43 = icmp ugt i32 %34, 4096
  br i1 %cmp43, label %if.then44, label %if.end46

if.then44:                                        ; preds = %if.end41
  %call45 = call noundef ptr @_ZN6Assimp13DefaultLogger3getEv()
  call void @_ZN6Assimp6Logger4warnEPKc(ptr noundef nonnull align 8 dereferenceable(12) %call45, ptr noundef @.str.46)
  br label %if.end46

if.end46:                                         ; preds = %if.then44, %if.end41
  %35 = load ptr, ptr %pcSurf.addr, align 8
  %NUM_FRAMES = getelementptr inbounds %"struct.Assimp::MD3::Surface", ptr %35, i32 0, i32 3
  %36 = load i32, ptr %NUM_FRAMES, align 4
  %cmp47 = icmp ugt i32 %36, 1024
  br i1 %cmp47, label %if.then48, label %if.end50

if.then48:                                        ; preds = %if.end46
  %call49 = call noundef ptr @_ZN6Assimp13DefaultLogger3getEv()
  call void @_ZN6Assimp6Logger4warnEPKc(ptr noundef nonnull align 8 dereferenceable(12) %call49, ptr noundef @.str.47)
  br label %if.end50

if.end50:                                         ; preds = %if.then48, %if.end46
  ret void

eh.resume:                                        ; preds = %lpad
  %exn = load ptr, ptr %exn.slot, align 8
  %sel = load i32, ptr %ehselector.slot, align 4
  %lpad.val = insertvalue { ptr, i32 } poison, ptr %exn, 0
  %lpad.val51 = insertvalue { ptr, i32 } %lpad.val, i32 %sel, 1
  resume { ptr, i32 } %lpad.val51
}