; Function Attrs: mustprogress uwtable
define hidden void @_ZN6Assimp11MD3Importer28ValidateSurfaceHeaderOffsetsEPKNS_3MD37SurfaceE(ptr nocapture noundef nonnull readonly align 8 dereferenceable(296) %this, ptr noundef %pcSurf) local_unnamed_addr #0 align 2 personality ptr @__gxx_personality_v0 {
entry:
  %mBuffer = getelementptr inbounds i8, ptr %this, i64 168
  %0 = load ptr, ptr %mBuffer, align 8
  %sub.ptr.lhs.cast = ptrtoint ptr %pcSurf to i64
  %sub.ptr.rhs.cast = ptrtoint ptr %0 to i64
  %sub.ptr.sub = sub i64 %sub.ptr.lhs.cast, %sub.ptr.rhs.cast
  %conv = trunc i64 %sub.ptr.sub to i32
  %OFS_TRIANGLES = getelementptr inbounds i8, ptr %pcSurf, i64 88
  %1 = load i32, ptr %OFS_TRIANGLES, align 4
  %add = add i32 %1, %conv
  %conv2 = zext i32 %add to i64
  %NUM_TRIANGLES = getelementptr inbounds i8, ptr %pcSurf, i64 84
  %2 = load i32, ptr %NUM_TRIANGLES, align 4
  %conv3 = zext i32 %2 to i64
  %mul = mul nuw nsw i64 %conv3, 12
  %add4 = add nuw nsw i64 %mul, %conv2
  %fileSize = getelementptr inbounds i8, ptr %this, i64 176
  %3 = load i32, ptr %fileSize, align 8
  %conv5 = zext i32 %3 to i64
  %cmp = icmp ugt i64 %add4, %conv5
  br i1 %cmp, label %if.then, label %lor.lhs.false

lor.lhs.false:                                    ; preds = %entry
  %OFS_SHADERS = getelementptr inbounds i8, ptr %pcSurf, i64 92
  %4 = load i32, ptr %OFS_SHADERS, align 4
  %add6 = add i32 %4, %conv
  %conv7 = zext i32 %add6 to i64
  %NUM_SHADER = getelementptr inbounds i8, ptr %pcSurf, i64 76
  %5 = load i32, ptr %NUM_SHADER, align 4
  %conv8 = zext i32 %5 to i64
  %mul9 = mul nuw nsw i64 %conv8, 68
  %add10 = add nuw nsw i64 %mul9, %conv7
  %cmp13 = icmp ugt i64 %add10, %conv5
  br i1 %cmp13, label %if.then, label %lor.lhs.false14

lor.lhs.false14:                                  ; preds = %lor.lhs.false
  %OFS_ST = getelementptr inbounds i8, ptr %pcSurf, i64 96
  %6 = load i32, ptr %OFS_ST, align 4
  %add15 = add i32 %6, %conv
  %conv16 = zext i32 %add15 to i64
  %NUM_VERTICES = getelementptr inbounds i8, ptr %pcSurf, i64 80
  %7 = load i32, ptr %NUM_VERTICES, align 4
  %conv17 = zext i32 %7 to i64
  %mul18 = shl nuw nsw i64 %conv17, 3
  %add19 = add nuw nsw i64 %mul18, %conv16
  %cmp22 = icmp ugt i64 %add19, %conv5
  br i1 %cmp22, label %if.then, label %lor.lhs.false23

lor.lhs.false23:                                  ; preds = %lor.lhs.false14
  %OFS_XYZNORMAL = getelementptr inbounds i8, ptr %pcSurf, i64 100
  %8 = load i32, ptr %OFS_XYZNORMAL, align 4
  %add24 = add i32 %8, %conv
  %conv25 = zext i32 %add24 to i64
  %add29 = add nuw nsw i64 %mul18, %conv25
  %cmp32 = icmp ugt i64 %add29, %conv5
  br i1 %cmp32, label %if.then, label %if.end

if.then:                                          ; preds = %lor.lhs.false23, %lor.lhs.false14, %lor.lhs.false, %entry
  %exception = tail call ptr @__cxa_allocate_exception(i64 16) #17
  invoke void @_ZN17DeadlyImportErrorC2EPKc(ptr noundef nonnull align 8 dereferenceable(16) %exception, ptr noundef nonnull @.str.43)
          to label %invoke.cont unwind label %lpad

invoke.cont:                                      ; preds = %if.then
  tail call void @__cxa_throw(ptr nonnull %exception, ptr nonnull @_ZTI17DeadlyImportError, ptr nonnull @_ZN17DeadlyImportErrorD2Ev) #21
  unreachable

lpad:                                             ; preds = %if.then
  %9 = landingpad { ptr, i32 }
          cleanup
  tail call void @__cxa_free_exception(ptr %exception) #17
  resume { ptr, i32 } %9

if.end:                                           ; preds = %lor.lhs.false23
  %cmp34 = icmp ugt i32 %2, 8192
  br i1 %cmp34, label %if.then35, label %if.end36

if.then35:                                        ; preds = %if.end
  %call = tail call noundef ptr @_ZN6Assimp13DefaultLogger3getEv()
  tail call void @_ZN6Assimp6Logger4warnEPKc(ptr noundef nonnull align 8 dereferenceable(12) %call, ptr noundef nonnull @.str.44)
  %.pre = load i32, ptr %NUM_SHADER, align 4
  br label %if.end36

if.end36:                                         ; preds = %if.then35, %if.end
  %10 = phi i32 [ %.pre, %if.then35 ], [ %5, %if.end ]
  %cmp38 = icmp ugt i32 %10, 256
  br i1 %cmp38, label %if.then39, label %if.end41

if.then39:                                        ; preds = %if.end36
  %call40 = tail call noundef ptr @_ZN6Assimp13DefaultLogger3getEv()
  tail call void @_ZN6Assimp6Logger4warnEPKc(ptr noundef nonnull align 8 dereferenceable(12) %call40, ptr noundef nonnull @.str.45)
  br label %if.end41

if.end41:                                         ; preds = %if.then39, %if.end36
  %11 = load i32, ptr %NUM_VERTICES, align 4
  %cmp43 = icmp ugt i32 %11, 4096
  br i1 %cmp43, label %if.then44, label %if.end46

if.then44:                                        ; preds = %if.end41
  %call45 = tail call noundef ptr @_ZN6Assimp13DefaultLogger3getEv()
  tail call void @_ZN6Assimp6Logger4warnEPKc(ptr noundef nonnull align 8 dereferenceable(12) %call45, ptr noundef nonnull @.str.46)
  br label %if.end46

if.end46:                                         ; preds = %if.then44, %if.end41
  %NUM_FRAMES = getelementptr inbounds i8, ptr %pcSurf, i64 72
  %12 = load i32, ptr %NUM_FRAMES, align 4
  %cmp47 = icmp ugt i32 %12, 1024
  br i1 %cmp47, label %if.then48, label %if.end50

if.then48:                                        ; preds = %if.end46
  %call49 = tail call noundef ptr @_ZN6Assimp13DefaultLogger3getEv()
  tail call void @_ZN6Assimp6Logger4warnEPKc(ptr noundef nonnull align 8 dereferenceable(12) %call49, ptr noundef nonnull @.str.47)
  br label %if.end50

if.end50:                                         ; preds = %if.then48, %if.end46
  ret void
}